target datalayout = "e-m:e-p270:32:32-p271:32:32-p272:64:64-i64:64-i128:128-f80:128-n8:16:32:64-S128"
target triple = "x86_64-unknown-linux-gnu"

%"class.hermes::Type" = type { i16, i16 }

; Function Attrs: mustprogress nounwind uwtable
define linkonce_odr hidden noundef zeroext i1 @_ZNK6hermes4Type11isPrimitiveEv(ptr noundef nonnull align 2 dereferenceable(4) %this) #0 comdat align 2 {
entry:
  %this.addr = alloca ptr, align 8
  store ptr %this, ptr %this.addr, align 8
  %this1 = load ptr, ptr %this.addr, align 8
  %bitmask_ = getelementptr inbounds %"class.hermes::Type", ptr %this1, i32 0, i32 0
  %0 = load i16, ptr %bitmask_, align 2
  %tobool = icmp ne i16 %0, 0
  br i1 %tobool, label %land.rhs, label %land.end

land.rhs:                                         ; preds = %entry
  %bitmask_2 = getelementptr inbounds %"class.hermes::Type", ptr %this1, i32 0, i32 0
  %1 = load i16, ptr %bitmask_2, align 2
  %conv = zext i16 %1 to i32
  %and = and i32 %conv, -127
  %tobool3 = icmp ne i32 %and, 0
  %lnot = xor i1 %tobool3, true
  br label %land.end

land.end:                                         ; preds = %land.rhs, %entry
  %2 = phi i1 [ false, %entry ], [ %lnot, %land.rhs ]
  ret i1 %2
}

; Function Attrs: mustprogress nounwind uwtable
define hidden noundef zeroext i1 @_ZN6hermes16isSideEffectFreeENS_4TypeE(i32 %T.coerce) #0 {
entry:
  %T = alloca %"class.hermes::Type", align 2
  store i32 %T.coerce, ptr %T, align 2
  %call = call noundef zeroext i1 @_ZNK6hermes4Type11isPrimitiveEv(ptr noundef nonnull align 2 dereferenceable(4) %T)
  ret i1 %call
}