; Function Attrs: mustprogress nofree norecurse nosync nounwind willreturn memory(none) uwtable
define hidden noundef zeroext i1 @_ZN6hermes16isSideEffectFreeENS_4TypeE(i32 %T.coerce) local_unnamed_addr #1 {
entry:
  %T.sroa.0.0.extract.trunc = trunc i32 %T.coerce to i16
  %tobool.not.i = icmp ne i16 %T.sroa.0.0.extract.trunc, 0
  %0 = and i16 %T.sroa.0.0.extract.trunc, -127
  %tobool3.not.i = icmp eq i16 %0, 0
  %1 = and i1 %tobool.not.i, %tobool3.not.i
  ret i1 %1
}